; Function Attrs: null_pointer_is_valid sspstrong uwtable
define void @wmem_strbuf_destroy(ptr noundef %0) local_unnamed_addr #0 {
  %2 = icmp eq ptr %0, null
  br i1 %2, label %8, label %3

3:                                                ; preds = %1
  %4 = load ptr, ptr %0, align 8
  %5 = getelementptr inbounds nuw i8, ptr %0, i64 8
  %6 = load ptr, ptr %5, align 8
  tail call void @wmem_free(ptr noundef %4, ptr noundef %6)
  %7 = load ptr, ptr %0, align 8
  tail call void @wmem_free(ptr noundef %7, ptr noundef nonnull %0)
  br label %8

8:                                                ; preds = %1, %3
  ret void
}